target datalayout = "e-m:e-p270:32:32-p271:32:32-p272:64:64-i64:64-i128:128-f80:128-n8:16:32:64-S128"
target triple = "x86_64-pc-linux-gnu"

; Function Attrs: nounwind uwtable
define internal i32 @ERR_isError(i64 noundef %0) #0 {
  %2 = alloca i64, align 8
  store i64 %0, ptr %2, align 8
  %3 = load i64, ptr %2, align 8
  %4 = icmp ugt i64 %3, -120
  %5 = zext i1 %4 to i32
  ret i32 %5
}

; Function Attrs: nounwind uwtable
define dso_local i64 @HUF_decompress1X2_DCtx_wksp(ptr noundef %0, ptr noundef %1, i64 noundef %2, ptr noundef %3, i64 noundef %4, ptr noundef %5, i64 noundef %6, i32 noundef %7) #0 {
  %9 = alloca i64, align 8
  %10 = alloca ptr, align 8
  %11 = alloca ptr, align 8
  %12 = alloca i64, align 8
  %13 = alloca ptr, align 8
  %14 = alloca i64, align 8
  %15 = alloca ptr, align 8
  %16 = alloca i64, align 8
  %17 = alloca i32, align 4
  %18 = alloca ptr, align 8
  %19 = alloca i64, align 8
  store ptr %0, ptr %10, align 8
  store ptr %1, ptr %11, align 8
  store i64 %2, ptr %12, align 8
  store ptr %3, ptr %13, align 8
  store i64 %4, ptr %14, align 8
  store ptr %5, ptr %15, align 8
  store i64 %6, ptr %16, align 8
  store i32 %7, ptr %17, align 4
  %20 = load ptr, ptr %13, align 8
  store ptr %20, ptr %18, align 8
  %21 = load ptr, ptr %10, align 8
  %22 = load ptr, ptr %13, align 8
  %23 = load i64, ptr %14, align 8
  %24 = load ptr, ptr %15, align 8
  %25 = load i64, ptr %16, align 8
  %26 = load i32, ptr %17, align 4
  %27 = call i64 @HUF_readDTableX2_wksp(ptr noundef %21, ptr noundef %22, i64 noundef %23, ptr noundef %24, i64 noundef %25, i32 noundef %26)
  store i64 %27, ptr %19, align 8
  %28 = load i64, ptr %19, align 8
  %29 = call i32 @ERR_isError(i64 noundef %28)
  %30 = icmp ne i32 %29, 0
  br i1 %30, label %31, label %33

31:                                               ; preds = %8
  %32 = load i64, ptr %19, align 8
  store i64 %32, ptr %9, align 8
  br label %52

33:                                               ; preds = %8
  %34 = load i64, ptr %19, align 8
  %35 = load i64, ptr %14, align 8
  %36 = icmp uge i64 %34, %35
  br i1 %36, label %37, label %38

37:                                               ; preds = %33
  store i64 -72, ptr %9, align 8
  br label %52

38:                                               ; preds = %33
  %39 = load i64, ptr %19, align 8
  %40 = load ptr, ptr %18, align 8
  %41 = getelementptr inbounds i8, ptr %40, i64 %39
  store ptr %41, ptr %18, align 8
  %42 = load i64, ptr %19, align 8
  %43 = load i64, ptr %14, align 8
  %44 = sub i64 %43, %42
  store i64 %44, ptr %14, align 8
  %45 = load ptr, ptr %11, align 8
  %46 = load i64, ptr %12, align 8
  %47 = load ptr, ptr %18, align 8
  %48 = load i64, ptr %14, align 8
  %49 = load ptr, ptr %10, align 8
  %50 = load i32, ptr %17, align 4
  %51 = call i64 @HUF_decompress1X2_usingDTable_internal(ptr noundef %45, i64 noundef %46, ptr noundef %47, i64 noundef %48, ptr noundef %49, i32 noundef %50)
  store i64 %51, ptr %9, align 8
  br label %52

52:                                               ; preds = %38, %37, %31
  %53 = load i64, ptr %9, align 8
  ret i64 %53
}